target datalayout = "e-m:e-p270:32:32-p271:32:32-p272:64:64-i64:64-i128:128-f80:128-n8:16:32:64-S128"
target triple = "x86_64-pc-linux-gnu"

%struct.poly_st = type { [256 x i32] }

; Function Attrs: nounwind uwtable
define internal i32 @poly_encode_4_bits(ptr noundef %0, ptr noundef %1) #0 {
  %3 = alloca i32, align 4
  %4 = alloca ptr, align 8
  %5 = alloca ptr, align 8
  %6 = alloca ptr, align 8
  %7 = alloca ptr, align 8
  %8 = alloca ptr, align 8
  %9 = alloca i32, align 4
  %10 = alloca i32, align 4
  %11 = alloca i32, align 4
  store ptr %0, ptr %4, align 8, !tbaa !20
  store ptr %1, ptr %5, align 8, !tbaa !29
  call void @llvm.lifetime.start.p0(i64 8, ptr %6) #7
  call void @llvm.lifetime.start.p0(i64 8, ptr %7) #7
  %12 = load ptr, ptr %4, align 8, !tbaa !20
  %13 = getelementptr inbounds nuw %struct.poly_st, ptr %12, i32 0, i32 0
  %14 = getelementptr inbounds [256 x i32], ptr %13, i64 0, i64 0
  store ptr %14, ptr %7, align 8, !tbaa !31
  call void @llvm.lifetime.start.p0(i64 8, ptr %8) #7
  %15 = load ptr, ptr %7, align 8, !tbaa !31
  %16 = getelementptr inbounds i32, ptr %15, i64 256
  store ptr %16, ptr %8, align 8, !tbaa !31
  %17 = load ptr, ptr %5, align 8, !tbaa !29
  %18 = call i32 @WPACKET_allocate_bytes(ptr noundef %17, i64 noundef 128, ptr noundef %6)
  %19 = icmp ne i32 %18, 0
  br i1 %19, label %21, label %20

20:                                               ; preds = %2
  store i32 0, ptr %3, align 4
  store i32 1, ptr %9, align 4
  br label %41

21:                                               ; preds = %2
  br label %22

22:                                               ; preds = %36, %21
  call void @llvm.lifetime.start.p0(i64 4, ptr %10) #7
  %23 = load ptr, ptr %7, align 8, !tbaa !31
  %24 = getelementptr inbounds nuw i32, ptr %23, i32 1
  store ptr %24, ptr %7, align 8, !tbaa !31
  %25 = load i32, ptr %23, align 4, !tbaa !8
  store i32 %25, ptr %10, align 4, !tbaa !8
  call void @llvm.lifetime.start.p0(i64 4, ptr %11) #7
  %26 = load ptr, ptr %7, align 8, !tbaa !31
  %27 = getelementptr inbounds nuw i32, ptr %26, i32 1
  store ptr %27, ptr %7, align 8, !tbaa !31
  %28 = load i32, ptr %26, align 4, !tbaa !8
  store i32 %28, ptr %11, align 4, !tbaa !8
  %29 = load i32, ptr %10, align 4, !tbaa !8
  %30 = load i32, ptr %11, align 4, !tbaa !8
  %31 = shl i32 %30, 4
  %32 = or i32 %29, %31
  %33 = trunc i32 %32 to i8
  %34 = load ptr, ptr %6, align 8, !tbaa !25
  %35 = getelementptr inbounds nuw i8, ptr %34, i32 1
  store ptr %35, ptr %6, align 8, !tbaa !25
  store i8 %33, ptr %34, align 1, !tbaa !33
  call void @llvm.lifetime.end.p0(i64 4, ptr %11) #7
  call void @llvm.lifetime.end.p0(i64 4, ptr %10) #7
  br label %36

36:                                               ; preds = %22
  %37 = load ptr, ptr %7, align 8, !tbaa !31
  %38 = load ptr, ptr %8, align 8, !tbaa !31
  %39 = icmp ult ptr %37, %38
  br i1 %39, label %22, label %40, !llvm.loop !95

40:                                               ; preds = %36
  store i32 1, ptr %3, align 4
  store i32 1, ptr %9, align 4
  br label %41

41:                                               ; preds = %40, %20
  call void @llvm.lifetime.end.p0(i64 8, ptr %8) #7
  call void @llvm.lifetime.end.p0(i64 8, ptr %7) #7
  call void @llvm.lifetime.end.p0(i64 8, ptr %6) #7
  %42 = load i32, ptr %3, align 4
  ret i32 %42
}