; Function Attrs: nounwind uwtable
define internal range(i32 0, 2) i32 @poly_encode_4_bits(ptr noundef readonly captures(none) %0, ptr noundef %1) unnamed_addr #0 {
  %3 = alloca ptr, align 8
  call void @llvm.lifetime.start.p0(i64 8, ptr nonnull %3) #9
  %4 = call i32 @WPACKET_allocate_bytes(ptr noundef %1, i64 noundef 128, ptr noundef nonnull %3) #9
  %.not = icmp eq i32 %4, 0
  br i1 %.not, label %.loopexit, label %.preheader

.preheader:                                       ; preds = %2, %.preheader
  %.09.idx = phi i64 [ %.09.add, %.preheader ], [ 0, %2 ]
  %.09.ptr = getelementptr inbounds nuw i8, ptr %0, i64 %.09.idx
  %5 = getelementptr inbounds nuw i8, ptr %.09.ptr, i64 4
  %6 = load i32, ptr %.09.ptr, align 4, !tbaa !21
  %.09.add = add nuw nsw i64 %.09.idx, 8
  %7 = load i32, ptr %5, align 4, !tbaa !21
  %8 = shl i32 %7, 4
  %9 = or i32 %8, %6
  %10 = trunc i32 %9 to i8
  %11 = load ptr, ptr %3, align 8, !tbaa !22
  %12 = getelementptr inbounds nuw i8, ptr %11, i64 1
  store ptr %12, ptr %3, align 8, !tbaa !22
  store i8 %10, ptr %11, align 1, !tbaa !23
  %13 = icmp samesign ult i64 %.09.idx, 1016
  br i1 %13, label %.preheader, label %.loopexit, !llvm.loop !83

.loopexit:                                        ; preds = %.preheader, %2
  %.0 = phi i32 [ 0, %2 ], [ 1, %.preheader ]
  call void @llvm.lifetime.end.p0(i64 8, ptr nonnull %3) #9
  ret i32 %.0
}